; Function Attrs: nounwind sspstrong uwtable
define internal fastcc void @st_insert_single(ptr noundef captures(none) %0, i64 noundef %1, i64 noundef %2, i64 noundef %3) unnamed_addr #0 {
  %5 = tail call i64 @rb_obj_class(i64 noundef %2) #25
  %6 = load i64, ptr @rb_cString, align 8, !tbaa !7
  %7 = icmp eq i64 %5, %6
  br i1 %7, label %8, label %st_stringify.exit

8:                                                ; preds = %4
  %9 = icmp eq i64 %2, 0
  %10 = and i64 %2, 7
  %11 = icmp ne i64 %10, 0
  %12 = or i1 %9, %11
  br i1 %12, label %st_stringify.exit, label %RB_FL_ABLE.exit.i.i

RB_FL_ABLE.exit.i.i:                              ; preds = %8
  %13 = inttoptr i64 %2 to ptr
  %14 = load i64, ptr %13, align 8, !tbaa !71
  %15 = and i64 %14, 31
  %.not.i.i = icmp eq i64 %15, 27
  %16 = and i64 %14, 2048
  %17 = icmp ne i64 %16, 0
  %or.cond.i = or i1 %.not.i.i, %17
  br i1 %or.cond.i, label %st_stringify.exit, label %18

18:                                               ; preds = %RB_FL_ABLE.exit.i.i
  %19 = tail call i64 @rb_hash_key_str(i64 noundef %2) #25
  br label %st_stringify.exit

st_stringify.exit:                                ; preds = %4, %8, %RB_FL_ABLE.exit.i.i, %18
  %20 = phi i64 [ %19, %18 ], [ %2, %4 ], [ %2, %RB_FL_ABLE.exit.i.i ], [ %2, %8 ]
  %21 = getelementptr i8, ptr %0, i64 8
  %.val = load ptr, ptr %21, align 8, !tbaa !11
  %22 = getelementptr i8, ptr %.val, i64 8
  %.val.val = load ptr, ptr %22, align 8, !tbaa !29
  %23 = tail call i64 %.val.val(i64 noundef %20) #25
  %24 = icmp eq i64 %23, -1
  %25 = select i1 %24, i64 0, i64 %23
  %26 = getelementptr inbounds nuw i8, ptr %0, i64 48
  %27 = load ptr, ptr %26, align 8, !tbaa !26
  %28 = getelementptr inbounds nuw i8, ptr %0, i64 40
  %29 = load i64, ptr %28, align 8, !tbaa !31
  %30 = add i64 %29, 1
  store i64 %30, ptr %28, align 8, !tbaa !31
  %31 = getelementptr %struct.st_table_entry, ptr %27, i64 %29
  store i64 %25, ptr %31, align 8, !tbaa !7
  %.sroa.4.0..sroa_idx = getelementptr inbounds nuw i8, ptr %31, i64 8
  store i64 %20, ptr %.sroa.4.0..sroa_idx, align 8, !tbaa !7
  %.sroa.5.0..sroa_idx = getelementptr inbounds nuw i8, ptr %31, i64 16
  store i64 %3, ptr %.sroa.5.0..sroa_idx, align 8, !tbaa !7
  %32 = getelementptr inbounds nuw i8, ptr %0, i64 16
  %33 = load i64, ptr %32, align 8, !tbaa !27
  %34 = add i64 %33, 1
  store i64 %34, ptr %32, align 8, !tbaa !27
  %35 = icmp eq i64 %20, 0
  %36 = and i64 %20, 7
  %37 = icmp ne i64 %36, 0
  %38 = or i1 %35, %37
  br i1 %38, label %rb_obj_written.exit, label %39

39:                                               ; preds = %st_stringify.exit
  tail call void @rb_gc_writebarrier(i64 noundef %1, i64 noundef %20) #25
  br label %rb_obj_written.exit

rb_obj_written.exit:                              ; preds = %st_stringify.exit, %39
  %40 = icmp eq i64 %3, 0
  %41 = and i64 %3, 7
  %42 = icmp ne i64 %41, 0
  %43 = or i1 %40, %42
  br i1 %43, label %rb_obj_written.exit11, label %44

44:                                               ; preds = %rb_obj_written.exit
  tail call void @rb_gc_writebarrier(i64 noundef %1, i64 noundef %3) #25
  br label %rb_obj_written.exit11

rb_obj_written.exit11:                            ; preds = %rb_obj_written.exit, %44
  ret void
}